; ModuleID = '33/962.c'
source_filename = "33/962.c"
target datalayout = "e-m:e-p270:32:32-p271:32:32-p272:64:64-i64:64-f80:128-n8:16:32:64-S128"
target triple = "x86_64-pc-linux-gnu"

@.str = private unnamed_addr constant [3 x i8] c"%d\00", align 1
@.str.1 = private unnamed_addr constant [2 x i8] c"G\00", align 1
@.str.2 = private unnamed_addr constant [2 x i8] c"T\00", align 1
@.str.3 = private unnamed_addr constant [2 x i8] c"A\00", align 1
@.str.4 = private unnamed_addr constant [2 x i8] c"C\00", align 1
@.str.5 = private unnamed_addr constant [2 x i8] c"\0A\00", align 1

; Function Attrs: noinline nounwind uwtable
define dso_local void @main() #0 {
  %1 = alloca i32, align 4
  %2 = alloca i32, align 4
  %3 = alloca i32, align 4
  %4 = alloca i32, align 4
  %5 = alloca [3 x i8], align 1
  %6 = alloca [1000 x [1000 x i8]], align 16
  %7 = call i32 (i8*, ...) @__isoc99_scanf(i8* getelementptr inbounds ([3 x i8], [3 x i8]* @.str, i64 0, i64 0), i32* %3)
  %8 = getelementptr inbounds [3 x i8], [3 x i8]* %5, i64 0, i64 0
  %9 = call i32 (i8*, ...) bitcast (i32 (...)* @gets to i32 (i8*, ...)*)(i8* %8)
  store i32 0, i32* %1, align 4
  br label %10

10:                                               ; preds = %84, %0
  %11 = load i32, i32* %1, align 4
  %12 = load i32, i32* %3, align 4
  %13 = icmp slt i32 %11, %12
  br i1 %13, label %14, label %87

14:                                               ; preds = %10
  %15 = load i32, i32* %1, align 4
  %16 = sext i32 %15 to i64
  %17 = getelementptr inbounds [1000 x [1000 x i8]], [1000 x [1000 x i8]]* %6, i64 0, i64 %16
  %18 = getelementptr inbounds [1000 x i8], [1000 x i8]* %17, i64 0, i64 0
  %19 = call i32 (i8*, ...) bitcast (i32 (...)* @gets to i32 (i8*, ...)*)(i8* %18)
  %20 = load i32, i32* %1, align 4
  %21 = sext i32 %20 to i64
  %22 = getelementptr inbounds [1000 x [1000 x i8]], [1000 x [1000 x i8]]* %6, i64 0, i64 %21
  %23 = getelementptr inbounds [1000 x i8], [1000 x i8]* %22, i64 0, i64 0
  %24 = call i64 @strlen(i8* %23) #3
  %25 = trunc i64 %24 to i32
  store i32 %25, i32* %2, align 4
  store i32 0, i32* %4, align 4
  br label %26

26:                                               ; preds = %79, %14
  %27 = load i32, i32* %4, align 4
  %28 = load i32, i32* %2, align 4
  %29 = icmp slt i32 %27, %28
  br i1 %29, label %30, label %82

30:                                               ; preds = %26
  %31 = load i32, i32* %1, align 4
  %32 = sext i32 %31 to i64
  %33 = getelementptr inbounds [1000 x [1000 x i8]], [1000 x [1000 x i8]]* %6, i64 0, i64 %32
  %34 = load i32, i32* %4, align 4
  %35 = sext i32 %34 to i64
  %36 = getelementptr inbounds [1000 x i8], [1000 x i8]* %33, i64 0, i64 %35
  %37 = load i8, i8* %36, align 1
  %38 = sext i8 %37 to i32
  %39 = icmp eq i32 %38, 67
  br i1 %39, label %40, label %42

40:                                               ; preds = %30
  %41 = call i32 (i8*, ...) @printf(i8* getelementptr inbounds ([2 x i8], [2 x i8]* @.str.1, i64 0, i64 0))
  br label %42

42:                                               ; preds = %40, %30
  %43 = load i32, i32* %1, align 4
  %44 = sext i32 %43 to i64
  %45 = getelementptr inbounds [1000 x [1000 x i8]], [1000 x [1000 x i8]]* %6, i64 0, i64 %44
  %46 = load i32, i32* %4, align 4
  %47 = sext i32 %46 to i64
  %48 = getelementptr inbounds [1000 x i8], [1000 x i8]* %45, i64 0, i64 %47
  %49 = load i8, i8* %48, align 1
  %50 = sext i8 %49 to i32
  %51 = icmp eq i32 %50, 65
  br i1 %51, label %52, label %54

52:                                               ; preds = %42
  %53 = call i32 (i8*, ...) @printf(i8* getelementptr inbounds ([2 x i8], [2 x i8]* @.str.2, i64 0, i64 0))
  br label %54

54:                                               ; preds = %52, %42
  %55 = load i32, i32* %1, align 4
  %56 = sext i32 %55 to i64
  %57 = getelementptr inbounds [1000 x [1000 x i8]], [1000 x [1000 x i8]]* %6, i64 0, i64 %56
  %58 = load i32, i32* %4, align 4
  %59 = sext i32 %58 to i64
  %60 = getelementptr inbounds [1000 x i8], [1000 x i8]* %57, i64 0, i64 %59
  %61 = load i8, i8* %60, align 1
  %62 = sext i8 %61 to i32
  %63 = icmp eq i32 %62, 84
  br i1 %63, label %64, label %66

64:                                               ; preds = %54
  %65 = call i32 (i8*, ...) @printf(i8* getelementptr inbounds ([2 x i8], [2 x i8]* @.str.3, i64 0, i64 0))
  br label %66

66:                                               ; preds = %64, %54
  %67 = load i32, i32* %1, align 4
  %68 = sext i32 %67 to i64
  %69 = getelementptr inbounds [1000 x [1000 x i8]], [1000 x [1000 x i8]]* %6, i64 0, i64 %68
  %70 = load i32, i32* %4, align 4
  %71 = sext i32 %70 to i64
  %72 = getelementptr inbounds [1000 x i8], [1000 x i8]* %69, i64 0, i64 %71
  %73 = load i8, i8* %72, align 1
  %74 = sext i8 %73 to i32
  %75 = icmp eq i32 %74, 71
  br i1 %75, label %76, label %78

76:                                               ; preds = %66
  %77 = call i32 (i8*, ...) @printf(i8* getelementptr inbounds ([2 x i8], [2 x i8]* @.str.4, i64 0, i64 0))
  br label %78

78:                                               ; preds = %76, %66
  br label %79

79:                                               ; preds = %78
  %80 = load i32, i32* %4, align 4
  %81 = add nsw i32 %80, 1
  store i32 %81, i32* %4, align 4
  br label %26

82:                                               ; preds = %26
  %83 = call i32 (i8*, ...) @printf(i8* getelementptr inbounds ([2 x i8], [2 x i8]* @.str.5, i64 0, i64 0))
  br label %84

84:                                               ; preds = %82
  %85 = load i32, i32* %1, align 4
  %86 = add nsw i32 %85, 1
  store i32 %86, i32* %1, align 4
  br label %10

87:                                               ; preds = %10
  ret void
}

declare dso_local i32 @__isoc99_scanf(i8*, ...) #1

declare dso_local i32 @gets(...) #1

; Function Attrs: nounwind readonly
declare dso_local i64 @strlen(i8*) #2

declare dso_local i32 @printf(i8*, ...) #1


!llvm.module.flags = !{!0}
!llvm.ident = !{!1}

!0 = !{i32 1, !"wchar_size", i32 4}
!1 = !{!"clang version 10.0.0-4ubuntu1 "}
