; ModuleID = 'source-C-CXX/32/962.c'
source_filename = "source-C-CXX/32/962.c"
target datalayout = "e-m:e-p270:32:32-p271:32:32-p272:64:64-i64:64-f80:128-n8:16:32:64-S128"
target triple = "x86_64-pc-linux-gnu"

@.str = private unnamed_addr constant [3 x i8] c"%d\00", align 1

; Function Attrs: nounwind sspstrong uwtable
define dso_local void @main() local_unnamed_addr #0 {
  %1 = alloca i32, align 4
  %2 = alloca [3 x i8], align 1
  %3 = alloca [1000 x [1000 x i8]], align 16
  %4 = bitcast i32* %1 to i8*
  call void @llvm.lifetime.start.p0i8(i64 4, i8* nonnull %4) #6
  %5 = getelementptr inbounds [3 x i8], [3 x i8]* %2, i64 0, i64 0
  call void @llvm.lifetime.start.p0i8(i64 3, i8* nonnull %5) #6
  %6 = getelementptr inbounds [1000 x [1000 x i8]], [1000 x [1000 x i8]]* %3, i64 0, i64 0, i64 0
  call void @llvm.lifetime.start.p0i8(i64 1000000, i8* nonnull %6) #6
  %7 = call i32 (i8*, ...) @__isoc99_scanf(i8* getelementptr inbounds ([3 x i8], [3 x i8]* @.str, i64 0, i64 0), i32* nonnull %1)
  %8 = call i32 (i8*, ...) bitcast (i32 (...)* @gets to i32 (i8*, ...)*)(i8* nonnull %5) #6
  %9 = load i32, i32* %1, align 4, !tbaa !5
  %10 = icmp sgt i32 %9, 0
  br i1 %10, label %11, label %55

11:                                               ; preds = %0, %49
  %12 = phi i64 [ %51, %49 ], [ 0, %0 ]
  %13 = getelementptr inbounds [1000 x [1000 x i8]], [1000 x [1000 x i8]]* %3, i64 0, i64 %12, i64 0
  %14 = call i32 (i8*, ...) bitcast (i32 (...)* @gets to i32 (i8*, ...)*)(i8* nonnull %13) #6
  %15 = call i64 @strlen(i8* noundef nonnull %13) #7
  %16 = trunc i64 %15 to i32
  %17 = icmp sgt i32 %16, 0
  br i1 %17, label %18, label %49

18:                                               ; preds = %11
  %19 = shl i64 %15, 32
  %20 = ashr exact i64 %19, 32
  br label %21

21:                                               ; preds = %18, %46
  %22 = phi i64 [ 0, %18 ], [ %47, %46 ]
  %23 = getelementptr inbounds [1000 x [1000 x i8]], [1000 x [1000 x i8]]* %3, i64 0, i64 %12, i64 %22
  %24 = load i8, i8* %23, align 1, !tbaa !9
  %25 = icmp eq i8 %24, 67
  br i1 %25, label %26, label %29

26:                                               ; preds = %21
  %27 = call i32 @putchar(i32 71)
  %28 = load i8, i8* %23, align 1, !tbaa !9
  br label %29

29:                                               ; preds = %26, %21
  %30 = phi i8 [ %28, %26 ], [ %24, %21 ]
  %31 = icmp eq i8 %30, 65
  br i1 %31, label %32, label %35

32:                                               ; preds = %29
  %33 = call i32 @putchar(i32 84)
  %34 = load i8, i8* %23, align 1, !tbaa !9
  br label %35

35:                                               ; preds = %32, %29
  %36 = phi i8 [ %34, %32 ], [ %30, %29 ]
  %37 = icmp eq i8 %36, 84
  br i1 %37, label %38, label %41

38:                                               ; preds = %35
  %39 = call i32 @putchar(i32 65)
  %40 = load i8, i8* %23, align 1, !tbaa !9
  br label %41

41:                                               ; preds = %38, %35
  %42 = phi i8 [ %40, %38 ], [ %36, %35 ]
  %43 = icmp eq i8 %42, 71
  br i1 %43, label %44, label %46

44:                                               ; preds = %41
  %45 = call i32 @putchar(i32 67)
  br label %46

46:                                               ; preds = %41, %44
  %47 = add nuw nsw i64 %22, 1
  %48 = icmp eq i64 %47, %20
  br i1 %48, label %49, label %21, !llvm.loop !10

49:                                               ; preds = %46, %11
  %50 = call i32 @putchar(i32 10)
  %51 = add nuw nsw i64 %12, 1
  %52 = load i32, i32* %1, align 4, !tbaa !5
  %53 = sext i32 %52 to i64
  %54 = icmp slt i64 %51, %53
  br i1 %54, label %11, label %55, !llvm.loop !12

55:                                               ; preds = %49, %0
  call void @llvm.lifetime.end.p0i8(i64 1000000, i8* nonnull %6) #6
  call void @llvm.lifetime.end.p0i8(i64 3, i8* nonnull %5) #6
  call void @llvm.lifetime.end.p0i8(i64 4, i8* nonnull %4) #6
  ret void
}

; Function Attrs: argmemonly mustprogress nofree nosync nounwind willreturn
declare void @llvm.lifetime.start.p0i8(i64 immarg, i8* nocapture) #1

; Function Attrs: nofree nounwind
declare noundef i32 @__isoc99_scanf(i8* nocapture noundef readonly, ...) local_unnamed_addr #2

declare i32 @gets(...) local_unnamed_addr #3

; Function Attrs: argmemonly mustprogress nofree nounwind readonly willreturn
declare i64 @strlen(i8* nocapture) local_unnamed_addr #4

; Function Attrs: argmemonly mustprogress nofree nosync nounwind willreturn
declare void @llvm.lifetime.end.p0i8(i64 immarg, i8* nocapture) #1

; Function Attrs: nofree nounwind
declare noundef i32 @putchar(i32 noundef) local_unnamed_addr #5


!llvm.module.flags = !{!0, !1, !2, !3}
!llvm.ident = !{!4}

!0 = !{i32 1, !"wchar_size", i32 4}
!1 = !{i32 7, !"PIC Level", i32 2}
!2 = !{i32 7, !"PIE Level", i32 2}
!3 = !{i32 7, !"uwtable", i32 1}
!4 = !{!"clang version 13.0.0"}
!5 = !{!6, !6, i64 0}
!6 = !{!"int", !7, i64 0}
!7 = !{!"omnipotent char", !8, i64 0}
!8 = !{!"Simple C/C++ TBAA"}
!9 = !{!7, !7, i64 0}
!10 = distinct !{!10, !11}
!11 = !{!"llvm.loop.mustprogress"}
!12 = distinct !{!12, !11}
